target datalayout = "e-m:e-p270:32:32-p271:32:32-p272:64:64-i64:64-i128:128-f80:128-n8:16:32:64-S128"
target triple = "x86_64-pc-linux-gnu"

%struct.PJconsts = type <{ ptr, ptr, ptr, ptr, ptr, ptr, ptr, ptr, ptr, ptr, ptr, ptr, i32, [4 x i8], ptr, ptr, ptr, ptr, ptr, ptr, ptr, ptr, double, double, double, double, double, double, double, double, double, double, double, double, double, double, double, double, double, double, double, double, double, double, i32, i32, i32, i32, i32, i32, i32, i32, i32, i32, i32, [4 x i8], ptr, ptr, ptr, ptr, ptr, ptr, double, double, double, double, double, double, double, double, double, double, double, i32, [4 x i8], [7 x double], i32, [4 x i8], ptr, ptr, double, double, i32, [4 x i8], %"class.std::shared_ptr", i8, [7 x i8], double, i8, [7 x i8], %"class.std::__cxx11::basic_string", %"class.std::__cxx11::basic_string", %"class.std::__cxx11::basic_string", i8, [7 x i8], %"class.std::vector", i32, [4 x i8], %"class.std::vector.3", i32, i8, i8, i8, i8 }>
%"class.std::shared_ptr" = type { %"class.std::__shared_ptr" }
%"class.std::__shared_ptr" = type { ptr, %"class.std::__shared_count" }
%"class.std::__shared_count" = type { ptr }
%"class.std::__cxx11::basic_string" = type { %"struct.std::__cxx11::basic_string<char>::_Alloc_hider", i64, %union.anon }
%"struct.std::__cxx11::basic_string<char>::_Alloc_hider" = type { ptr }
%union.anon = type { i64, [8 x i8] }
%"class.std::vector" = type { %"struct.std::_Vector_base" }
%"struct.std::_Vector_base" = type { %"struct.std::_Vector_base<osgeo::proj::operation::GridDescription, std::allocator<osgeo::proj::operation::GridDescription>>::_Vector_impl" }
%"struct.std::_Vector_base<osgeo::proj::operation::GridDescription, std::allocator<osgeo::proj::operation::GridDescription>>::_Vector_impl" = type { %"struct.std::_Vector_base<osgeo::proj::operation::GridDescription, std::allocator<osgeo::proj::operation::GridDescription>>::_Vector_impl_data" }
%"struct.std::_Vector_base<osgeo::proj::operation::GridDescription, std::allocator<osgeo::proj::operation::GridDescription>>::_Vector_impl_data" = type { ptr, ptr, ptr }
%"class.std::vector.3" = type { %"struct.std::_Vector_base.4" }
%"struct.std::_Vector_base.4" = type { %"struct.std::_Vector_base<PJCoordOperation, std::allocator<PJCoordOperation>>::_Vector_impl" }
%"struct.std::_Vector_base<PJCoordOperation, std::allocator<PJCoordOperation>>::_Vector_impl" = type { %"struct.std::_Vector_base<PJCoordOperation, std::allocator<PJCoordOperation>>::_Vector_impl_data" }
%"struct.std::_Vector_base<PJCoordOperation, std::allocator<PJCoordOperation>>::_Vector_impl_data" = type { ptr, ptr, ptr }
%struct.PJ_LP = type { double, double }
%struct.PJ_XY = type { double, double }

; Function Attrs: mustprogress uwtable
define internal { double, double } @_ZL13cea_s_inverse5PJ_XYP8PJconsts(double %0, double %1, ptr noundef %2) #0 {
  %4 = alloca %struct.PJ_LP, align 8
  %5 = alloca %struct.PJ_XY, align 8
  %6 = alloca ptr, align 8
  %7 = alloca double, align 8
  %8 = getelementptr inbounds { double, double }, ptr %5, i32 0, i32 0
  store double %0, ptr %8, align 8
  %9 = getelementptr inbounds { double, double }, ptr %5, i32 0, i32 1
  store double %1, ptr %9, align 8
  store ptr %2, ptr %6, align 8
  call void @llvm.memset.p0.i64(ptr align 8 %4, i8 0, i64 16, i1 false)
  %10 = load ptr, ptr %6, align 8
  %11 = getelementptr inbounds %struct.PJconsts, ptr %10, i32 0, i32 68
  %12 = load double, ptr %11, align 8
  %13 = getelementptr inbounds %struct.PJ_XY, ptr %5, i32 0, i32 1
  %14 = load double, ptr %13, align 8
  %15 = fmul double %14, %12
  store double %15, ptr %13, align 8
  %16 = getelementptr inbounds %struct.PJ_XY, ptr %5, i32 0, i32 1
  %17 = load double, ptr %16, align 8
  %18 = call double @llvm.fabs.f64(double %17)
  store double %18, ptr %7, align 8
  %19 = load double, ptr %7, align 8
  %20 = fsub double %19, 1.000000e-10
  %21 = fcmp ole double %20, 1.000000e+00
  br i1 %21, label %22, label %44

22:                                               ; preds = %3
  %23 = load double, ptr %7, align 8
  %24 = fcmp oge double %23, 1.000000e+00
  br i1 %24, label %25, label %31

25:                                               ; preds = %22
  %26 = getelementptr inbounds %struct.PJ_XY, ptr %5, i32 0, i32 1
  %27 = load double, ptr %26, align 8
  %28 = fcmp olt double %27, 0.000000e+00
  %29 = select i1 %28, double 0xBFF921FB54442D18, double 0x3FF921FB54442D18
  %30 = getelementptr inbounds %struct.PJ_LP, ptr %4, i32 0, i32 1
  store double %29, ptr %30, align 8
  br label %36

31:                                               ; preds = %22
  %32 = getelementptr inbounds %struct.PJ_XY, ptr %5, i32 0, i32 1
  %33 = load double, ptr %32, align 8
  %34 = call double @asin(double noundef %33) #8
  %35 = getelementptr inbounds %struct.PJ_LP, ptr %4, i32 0, i32 1
  store double %34, ptr %35, align 8
  br label %36

36:                                               ; preds = %31, %25
  %37 = getelementptr inbounds %struct.PJ_XY, ptr %5, i32 0, i32 0
  %38 = load double, ptr %37, align 8
  %39 = load ptr, ptr %6, align 8
  %40 = getelementptr inbounds %struct.PJconsts, ptr %39, i32 0, i32 68
  %41 = load double, ptr %40, align 8
  %42 = fdiv double %38, %41
  %43 = getelementptr inbounds %struct.PJ_LP, ptr %4, i32 0, i32 0
  store double %42, ptr %43, align 8
  br label %47

44:                                               ; preds = %3
  %45 = load ptr, ptr %6, align 8
  %46 = call i32 @proj_errno_set(ptr noundef %45, i32 noundef 2050)
  br label %48

47:                                               ; preds = %36
  br label %48

48:                                               ; preds = %47, %44
  %49 = load { double, double }, ptr %4, align 8
  ret { double, double } %49
}