; Function Attrs: mustprogress uwtable
define internal { double, double } @_ZL13cea_s_inverse5PJ_XYP8PJconsts(double %0, double %1, ptr noundef %2) #0 {
  %4 = getelementptr inbounds i8, ptr %2, i64 488
  %5 = load double, ptr %4, align 8
  %6 = fmul double %5, %1
  %7 = tail call double @llvm.fabs.f64(double %6)
  %8 = fadd double %7, -1.000000e-10
  %9 = fcmp ugt double %8, 1.000000e+00
  br i1 %9, label %20, label %10

10:                                               ; preds = %3
  %11 = fcmp ult double %7, 1.000000e+00
  br i1 %11, label %15, label %12

12:                                               ; preds = %10
  %13 = fcmp olt double %6, 0.000000e+00
  %14 = select i1 %13, double 0xBFF921FB54442D18, double 0x3FF921FB54442D18
  br label %17

15:                                               ; preds = %10
  %16 = tail call double @asin(double noundef %6) #8
  %.pre = load double, ptr %4, align 8
  br label %17

17:                                               ; preds = %15, %12
  %18 = phi double [ %5, %12 ], [ %.pre, %15 ]
  %.sroa.3.0 = phi double [ %14, %12 ], [ %16, %15 ]
  %19 = fdiv double %0, %18
  br label %22

20:                                               ; preds = %3
  %21 = tail call i32 @proj_errno_set(ptr noundef nonnull %2, i32 noundef 2050)
  br label %22

22:                                               ; preds = %17, %20
  %.sroa.3.1 = phi double [ %.sroa.3.0, %17 ], [ 0.000000e+00, %20 ]
  %.sroa.08.0 = phi double [ %19, %17 ], [ 0.000000e+00, %20 ]
  %.fca.0.insert = insertvalue { double, double } poison, double %.sroa.08.0, 0
  %.fca.1.insert = insertvalue { double, double } %.fca.0.insert, double %.sroa.3.1, 1
  ret { double, double } %.fca.1.insert
}